target datalayout = "e-m:e-p270:32:32-p271:32:32-p272:64:64-i64:64-i128:128-f80:128-n8:16:32:64-S128"
target triple = "x86_64-unknown-linux-gnu"

%struct.ssl_st = type { i32, i16, i16, ptr, ptr, ptr, ptr, ptr, i32, i32, ptr, ptr, i32, i32, ptr, ptr, ptr, ptr, ptr, ptr, ptr, ptr, i32, i32, [32 x i8], ptr, ptr, ptr, ptr, ptr, ptr, ptr, i64, %struct.crypto_ex_data_st, ptr, i32, i32, i32, i32, i16, ptr, i32, i64, ptr, ptr, ptr, ptr, ptr, ptr, i32, i32, ptr, ptr, i8, i8, i32 }
%struct.crypto_ex_data_st = type { ptr }
%struct.buf_mem_st = type { i64, ptr, i64 }

; Function Attrs: nounwind uwtable
define hidden i32 @ssl3_set_handshake_header(ptr noundef %ssl, i32 noundef %htype, i64 noundef %len) #0 {
entry:
  %ssl.addr = alloca ptr, align 8
  %htype.addr = alloca i32, align 4
  %len.addr = alloca i64, align 8
  %p = alloca ptr, align 8
  store ptr %ssl, ptr %ssl.addr, align 8
  store i32 %htype, ptr %htype.addr, align 4
  store i64 %len, ptr %len.addr, align 8
  %0 = load ptr, ptr %ssl.addr, align 8
  %init_buf = getelementptr inbounds %struct.ssl_st, ptr %0, i32 0, i32 10
  %1 = load ptr, ptr %init_buf, align 8
  %data = getelementptr inbounds %struct.buf_mem_st, ptr %1, i32 0, i32 1
  %2 = load ptr, ptr %data, align 8
  store ptr %2, ptr %p, align 8
  %3 = load i32, ptr %htype.addr, align 4
  %conv = trunc i32 %3 to i8
  %4 = load ptr, ptr %p, align 8
  %incdec.ptr = getelementptr inbounds i8, ptr %4, i32 1
  store ptr %incdec.ptr, ptr %p, align 8
  store i8 %conv, ptr %4, align 1
  %5 = load i64, ptr %len.addr, align 8
  %shr = lshr i64 %5, 16
  %and = and i64 %shr, 255
  %conv1 = trunc i64 %and to i8
  %6 = load ptr, ptr %p, align 8
  %arrayidx = getelementptr inbounds i8, ptr %6, i64 0
  store i8 %conv1, ptr %arrayidx, align 1
  %7 = load i64, ptr %len.addr, align 8
  %shr2 = lshr i64 %7, 8
  %and3 = and i64 %shr2, 255
  %conv4 = trunc i64 %and3 to i8
  %8 = load ptr, ptr %p, align 8
  %arrayidx5 = getelementptr inbounds i8, ptr %8, i64 1
  store i8 %conv4, ptr %arrayidx5, align 1
  %9 = load i64, ptr %len.addr, align 8
  %and6 = and i64 %9, 255
  %conv7 = trunc i64 %and6 to i8
  %10 = load ptr, ptr %p, align 8
  %arrayidx8 = getelementptr inbounds i8, ptr %10, i64 2
  store i8 %conv7, ptr %arrayidx8, align 1
  %11 = load ptr, ptr %p, align 8
  %add.ptr = getelementptr inbounds i8, ptr %11, i64 3
  store ptr %add.ptr, ptr %p, align 8
  %12 = load i64, ptr %len.addr, align 8
  %conv9 = trunc i64 %12 to i32
  %add = add nsw i32 %conv9, 4
  %13 = load ptr, ptr %ssl.addr, align 8
  %init_num = getelementptr inbounds %struct.ssl_st, ptr %13, i32 0, i32 12
  store i32 %add, ptr %init_num, align 8
  %14 = load ptr, ptr %ssl.addr, align 8
  %init_off = getelementptr inbounds %struct.ssl_st, ptr %14, i32 0, i32 13
  store i32 0, ptr %init_off, align 4
  %15 = load ptr, ptr %ssl.addr, align 8
  %16 = load ptr, ptr %ssl.addr, align 8
  %init_buf10 = getelementptr inbounds %struct.ssl_st, ptr %16, i32 0, i32 10
  %17 = load ptr, ptr %init_buf10, align 8
  %data11 = getelementptr inbounds %struct.buf_mem_st, ptr %17, i32 0, i32 1
  %18 = load ptr, ptr %data11, align 8
  %19 = load ptr, ptr %ssl.addr, align 8
  %init_num12 = getelementptr inbounds %struct.ssl_st, ptr %19, i32 0, i32 12
  %20 = load i32, ptr %init_num12, align 8
  %conv13 = sext i32 %20 to i64
  %call = call i32 @ssl3_update_handshake_hash(ptr noundef %15, ptr noundef %18, i64 noundef %conv13)
  ret i32 %call
}