; Function Attrs: nounwind uwtable
define hidden i32 @ssl3_set_handshake_header(ptr noundef initializes((72, 80)) %ssl, i32 noundef %htype, i64 noundef %len) local_unnamed_addr #1 {
entry:
  %init_buf = getelementptr inbounds nuw i8, ptr %ssl, i64 56
  %0 = load ptr, ptr %init_buf, align 8
  %data = getelementptr inbounds nuw i8, ptr %0, i64 8
  %1 = load ptr, ptr %data, align 8
  %conv = trunc i32 %htype to i8
  %incdec.ptr = getelementptr inbounds nuw i8, ptr %1, i64 1
  store i8 %conv, ptr %1, align 1
  %shr = lshr i64 %len, 16
  %conv1 = trunc i64 %shr to i8
  store i8 %conv1, ptr %incdec.ptr, align 1
  %shr2 = lshr i64 %len, 8
  %conv4 = trunc i64 %shr2 to i8
  %arrayidx5 = getelementptr inbounds nuw i8, ptr %1, i64 2
  store i8 %conv4, ptr %arrayidx5, align 1
  %conv7 = trunc i64 %len to i8
  %arrayidx8 = getelementptr inbounds nuw i8, ptr %1, i64 3
  store i8 %conv7, ptr %arrayidx8, align 1
  %conv9 = trunc i64 %len to i32
  %add = add nsw i32 %conv9, 4
  %init_num = getelementptr inbounds nuw i8, ptr %ssl, i64 72
  store i32 %add, ptr %init_num, align 8
  %init_off = getelementptr inbounds nuw i8, ptr %ssl, i64 76
  store i32 0, ptr %init_off, align 4
  %2 = load ptr, ptr %init_buf, align 8
  %data11 = getelementptr inbounds nuw i8, ptr %2, i64 8
  %3 = load ptr, ptr %data11, align 8
  %conv13 = sext i32 %add to i64
  %call = tail call i32 @ssl3_update_handshake_hash(ptr noundef %ssl, ptr noundef %3, i64 noundef %conv13) #14
  ret i32 %call
}